; Function Attrs: mustprogress uwtable
define internal void @"_ZNSt17_Function_handlerIFvvEZZN9grpc_core19LoadBalancingPolicy11QueuePicker4PickENS2_8PickArgsEENK3$_0clEPvN4absl12lts_202308026StatusEEUlvE_E9_M_invokeERKSt9_Any_data"(ptr nocapture noundef nonnull readonly align 8 dereferenceable(16) %__functor) #3 align 2 {
entry:
  %0 = load ptr, ptr %__functor, align 8
  %vtable.i.i.i = load ptr, ptr %0, align 8
  %vfn.i.i.i = getelementptr inbounds i8, ptr %vtable.i.i.i, i64 40
  %1 = load ptr, ptr %vfn.i.i.i, align 8
  tail call void %1(ptr noundef nonnull align 8 dereferenceable(56) %0)
  %2 = load ptr, ptr %__functor, align 8
  %refs_.i.i.i.i = getelementptr inbounds i8, ptr %2, i64 8
  %3 = atomicrmw sub ptr %refs_.i.i.i.i, i64 1 acq_rel, align 8
  %cmp.i.i.i.i.i = icmp eq i64 %3, 1
  br i1 %cmp.i.i.i.i.i, label %if.then.i.i.i.i, label %"_ZSt10__invoke_rIvRZZN9grpc_core19LoadBalancingPolicy11QueuePicker4PickENS1_8PickArgsEENK3$_0clEPvN4absl12lts_202308026StatusEEUlvE_JEENSt9enable_ifIX16is_invocable_r_vIT_T0_DpT1_EESC_E4typeEOSD_DpOSE_.exit"

if.then.i.i.i.i:                                  ; preds = %entry
  %vtable.i.i.i.i.i = load ptr, ptr %2, align 8
  %vfn.i.i.i.i.i = getelementptr inbounds i8, ptr %vtable.i.i.i.i.i, i64 16
  %4 = load ptr, ptr %vfn.i.i.i.i.i, align 8
  tail call void %4(ptr noundef nonnull align 8 dereferenceable(56) %2) #14
  br label %"_ZSt10__invoke_rIvRZZN9grpc_core19LoadBalancingPolicy11QueuePicker4PickENS1_8PickArgsEENK3$_0clEPvN4absl12lts_202308026StatusEEUlvE_JEENSt9enable_ifIX16is_invocable_r_vIT_T0_DpT1_EESC_E4typeEOSD_DpOSE_.exit"

"_ZSt10__invoke_rIvRZZN9grpc_core19LoadBalancingPolicy11QueuePicker4PickENS1_8PickArgsEENK3$_0clEPvN4absl12lts_202308026StatusEEUlvE_JEENSt9enable_ifIX16is_invocable_r_vIT_T0_DpT1_EESC_E4typeEOSD_DpOSE_.exit": ; preds = %entry, %if.then.i.i.i.i
  ret void
}